; Function Attrs: mustprogress uwtable
define void @ggml_backend_tensor_get(ptr noundef %0, ptr noundef %1, i64 noundef %2, i64 noundef %3) local_unnamed_addr #0 {
  %.not = icmp eq ptr %0, null
  br i1 %.not, label %5, label %6

5:                                                ; preds = %4
  tail call void (ptr, i32, ptr, ...) @ggml_abort(ptr noundef nonnull @.str, i32 noundef 270, ptr noundef nonnull @.str.1, ptr noundef nonnull @.str.7) #24
  unreachable

6:                                                ; preds = %4
  %7 = getelementptr inbounds nuw i8, ptr %0, i64 232
  %8 = load ptr, ptr %7, align 8, !tbaa !41
  %.not18 = icmp eq ptr %8, null
  %. = select i1 %.not18, ptr %0, ptr %8
  %.in = getelementptr inbounds nuw i8, ptr %., i64 8
  %9 = load ptr, ptr %.in, align 8, !tbaa !47
  %10 = icmp eq i64 %3, 0
  br i1 %10, label %24, label %11

11:                                               ; preds = %6
  %.not19 = icmp eq ptr %9, null
  br i1 %.not19, label %12, label %13

12:                                               ; preds = %11
  tail call void (ptr, i32, ptr, ...) @ggml_abort(ptr noundef nonnull @.str, i32 noundef 277, ptr noundef nonnull @.str.1, ptr noundef nonnull @.str.8) #24
  unreachable

13:                                               ; preds = %11
  %14 = getelementptr inbounds nuw i8, ptr %0, i64 248
  %15 = load ptr, ptr %14, align 8, !tbaa !60
  %.not20 = icmp eq ptr %15, null
  br i1 %.not20, label %16, label %17

16:                                               ; preds = %13
  tail call void (ptr, i32, ptr, ...) @ggml_abort(ptr noundef nonnull @.str, i32 noundef 278, ptr noundef nonnull @.str.1, ptr noundef nonnull @.str.4) #24
  unreachable

17:                                               ; preds = %13
  %18 = add i64 %3, %2
  %19 = tail call i64 @ggml_nbytes(ptr noundef nonnull %0)
  %.not21 = icmp ugt i64 %18, %19
  br i1 %.not21, label %20, label %21

20:                                               ; preds = %17
  tail call void (ptr, i32, ptr, ...) @ggml_abort(ptr noundef nonnull @.str, i32 noundef 279, ptr noundef nonnull @.str.1, ptr noundef nonnull @.str.6) #24
  unreachable

21:                                               ; preds = %17
  %22 = getelementptr inbounds nuw i8, ptr %9, i64 40
  %23 = load ptr, ptr %22, align 8, !tbaa !64
  tail call void %23(ptr noundef nonnull %9, ptr noundef nonnull %0, ptr noundef %1, i64 noundef %2, i64 noundef %3)
  br label %24

24:                                               ; preds = %6, %21
  ret void
}